target datalayout = "e-m:e-p270:32:32-p271:32:32-p272:64:64-i64:64-i128:128-f80:128-n8:16:32:64-S128"
target triple = "x86_64-pc-linux-gnu"

%struct.sqlite3_file = type { ptr }
%struct.sqlite3_io_methods = type { i32, ptr, ptr, ptr, ptr, ptr, ptr, ptr, ptr, ptr, ptr, ptr, ptr, ptr, ptr, ptr, ptr, ptr, ptr }
%struct.ApndFile = type { %struct.sqlite3_file, i64, i64 }

@.str.227 = private unnamed_addr constant [14 x i8] c"apnd(%lld)/%z\00", align 1

; Function Attrs: nounwind uwtable
define internal i32 @apndFileControl(ptr noundef %0, i32 noundef %1, ptr noundef %2) #0 {
  %4 = alloca ptr, align 8
  %5 = alloca i32, align 4
  %6 = alloca ptr, align 8
  %7 = alloca ptr, align 8
  %8 = alloca i32, align 4
  store ptr %0, ptr %4, align 8, !tbaa !268
  store i32 %1, ptr %5, align 4, !tbaa !3
  store ptr %2, ptr %6, align 8, !tbaa !53
  call void @llvm.lifetime.start.p0(i64 8, ptr %7) #14
  %9 = load ptr, ptr %4, align 8, !tbaa !268
  store ptr %9, ptr %7, align 8, !tbaa !775
  call void @llvm.lifetime.start.p0(i64 4, ptr %8) #14
  %10 = load ptr, ptr %4, align 8, !tbaa !268
  %11 = getelementptr inbounds %struct.ApndFile, ptr %10, i64 1
  store ptr %11, ptr %4, align 8, !tbaa !268
  %12 = load i32, ptr %5, align 4, !tbaa !3
  %13 = icmp eq i32 %12, 5
  br i1 %13, label %14, label %21

14:                                               ; preds = %3
  %15 = load ptr, ptr %7, align 8, !tbaa !775
  %16 = getelementptr inbounds nuw %struct.ApndFile, ptr %15, i32 0, i32 1
  %17 = load i64, ptr %16, align 8, !tbaa !779
  %18 = load ptr, ptr %6, align 8, !tbaa !53
  %19 = load i64, ptr %18, align 8, !tbaa !44
  %20 = add nsw i64 %19, %17
  store i64 %20, ptr %18, align 8, !tbaa !44
  br label %21

21:                                               ; preds = %14, %3
  %22 = load ptr, ptr %4, align 8, !tbaa !268
  %23 = getelementptr inbounds nuw %struct.sqlite3_file, ptr %22, i32 0, i32 0
  %24 = load ptr, ptr %23, align 8, !tbaa !278
  %25 = getelementptr inbounds nuw %struct.sqlite3_io_methods, ptr %24, i32 0, i32 10
  %26 = load ptr, ptr %25, align 8, !tbaa !291
  %27 = load ptr, ptr %4, align 8, !tbaa !268
  %28 = load i32, ptr %5, align 4, !tbaa !3
  %29 = load ptr, ptr %6, align 8, !tbaa !53
  %30 = call i32 %26(ptr noundef %27, i32 noundef %28, ptr noundef %29)
  store i32 %30, ptr %8, align 4, !tbaa !3
  %31 = load i32, ptr %8, align 4, !tbaa !3
  %32 = icmp eq i32 %31, 0
  br i1 %32, label %33, label %44

33:                                               ; preds = %21
  %34 = load i32, ptr %5, align 4, !tbaa !3
  %35 = icmp eq i32 %34, 12
  br i1 %35, label %36, label %44

36:                                               ; preds = %33
  %37 = load ptr, ptr %7, align 8, !tbaa !775
  %38 = getelementptr inbounds nuw %struct.ApndFile, ptr %37, i32 0, i32 1
  %39 = load i64, ptr %38, align 8, !tbaa !779
  %40 = load ptr, ptr %6, align 8, !tbaa !53
  %41 = load ptr, ptr %40, align 8, !tbaa !36
  %42 = call ptr (ptr, ...) @sqlite3_mprintf(ptr noundef @.str.227, i64 noundef %39, ptr noundef %41)
  %43 = load ptr, ptr %6, align 8, !tbaa !53
  store ptr %42, ptr %43, align 8, !tbaa !36
  br label %44

44:                                               ; preds = %36, %33, %21
  %45 = load i32, ptr %8, align 4, !tbaa !3
  call void @llvm.lifetime.end.p0(i64 4, ptr %8) #14
  call void @llvm.lifetime.end.p0(i64 8, ptr %7) #14
  ret i32 %45
}