; Function Attrs: nounwind uwtable
define internal i32 @apndFileControl(ptr noundef %0, i32 noundef %1, ptr noundef %2) #2 {
  %4 = getelementptr inbounds nuw i8, ptr %0, i64 24
  %5 = icmp eq i32 %1, 5
  br i1 %5, label %6, label %11

6:                                                ; preds = %3
  %7 = getelementptr inbounds nuw i8, ptr %0, i64 8
  %8 = load i64, ptr %7, align 8, !tbaa !822
  %9 = load i64, ptr %2, align 8, !tbaa !23
  %10 = add nsw i64 %9, %8
  store i64 %10, ptr %2, align 8, !tbaa !23
  br label %11

11:                                               ; preds = %6, %3
  %12 = load ptr, ptr %4, align 8, !tbaa !310
  %13 = getelementptr inbounds nuw i8, ptr %12, i64 80
  %14 = load ptr, ptr %13, align 8, !tbaa !322
  %15 = tail call i32 %14(ptr noundef nonnull %4, i32 noundef %1, ptr noundef %2) #43
  %16 = icmp eq i32 %15, 0
  %17 = icmp eq i32 %1, 12
  %or.cond = and i1 %17, %16
  br i1 %or.cond, label %18, label %23

18:                                               ; preds = %11
  %19 = getelementptr inbounds nuw i8, ptr %0, i64 8
  %20 = load i64, ptr %19, align 8, !tbaa !822
  %21 = load ptr, ptr %2, align 8, !tbaa !29
  %22 = tail call ptr (ptr, ...) @sqlite3_mprintf(ptr noundef nonnull @.str.227, i64 noundef %20, ptr noundef %21) #43
  store ptr %22, ptr %2, align 8, !tbaa !29
  br label %23

23:                                               ; preds = %18, %11
  ret i32 %15
}